(imetasync.mapping
DetMap2
p0
(dp1
S'version'
p2
I0
sS'hspace'
p3
I1024
sS'mapinfo'
p4
(dp5
I0
(imetasync.mapping
DetMapInfo2
p6
(dp7
g3
I1024
sS'replica'
p8
I1
sS'config'
p9
(lp10
(L9654L
I2
tp11
asg2
I0
sS'detmap'
p12
(lp13
(lp14
(L9654L
I0
tp15
aa(lp16
(L9654L
I0
tp17
aa(lp18
(L9654L
I0
tp19
aa(lp20
(L9654L
I0
tp21
aa(lp22
(L9654L
I0
tp23
aa(lp24
(L9654L
I0
tp25
aa(lp26
(L9654L
I0
tp27
aa(lp28
(L9654L
I0
tp29
aa(lp30
(L9654L
I0
tp31
aa(lp32
(L9654L
I0
tp33
aa(lp34
(L9654L
I0
tp35
aa(lp36
(L9654L
I0
tp37
aa(lp38
(L9654L
I0
tp39
aa(lp40
(L9654L
I0
tp41
aa(lp42
(L9654L
I0
tp43
aa(lp44
(L9654L
I0
tp45
aa(lp46
(L9654L
I0
tp47
aa(lp48
(L9654L
I0
tp49
aa(lp50
(L9654L
I0
tp51
aa(lp52
(L9654L
I0
tp53
aa(lp54
(L9654L
I0
tp55
aa(lp56
(L9654L
I0
tp57
aa(lp58
(L9654L
I0
tp59
aa(lp60
(L9654L
I0
tp61
aa(lp62
(L9654L
I0
tp63
aa(lp64
(L9654L
I0
tp65
aa(lp66
(L9654L
I0
tp67
aa(lp68
(L9654L
I0
tp69
aa(lp70
(L9654L
I0
tp71
aa(lp72
(L9654L
I0
tp73
aa(lp74
(L9654L
I0
tp75
aa(lp76
(L9654L
I0
tp77
aa(lp78
(L9654L
I0
tp79
aa(lp80
(L9654L
I0
tp81
aa(lp82
(L9654L
I0
tp83
aa(lp84
(L9654L
I0
tp85
aa(lp86
(L9654L
I0
tp87
aa(lp88
(L9654L
I0
tp89
aa(lp90
(L9654L
I0
tp91
aa(lp92
(L9654L
I0
tp93
aa(lp94
(L9654L
I0
tp95
aa(lp96
(L9654L
I0
tp97
aa(lp98
(L9654L
I0
tp99
aa(lp100
(L9654L
I0
tp101
aa(lp102
(L9654L
I0
tp103
aa(lp104
(L9654L
I0
tp105
aa(lp106
(L9654L
I0
tp107
aa(lp108
(L9654L
I0
tp109
aa(lp110
(L9654L
I0
tp111
aa(lp112
(L9654L
I0
tp113
aa(lp114
(L9654L
I0
tp115
aa(lp116
(L9654L
I0
tp117
aa(lp118
(L9654L
I0
tp119
aa(lp120
(L9654L
I0
tp121
aa(lp122
(L9654L
I0
tp123
aa(lp124
(L9654L
I0
tp125
aa(lp126
(L9654L
I0
tp127
aa(lp128
(L9654L
I0
tp129
aa(lp130
(L9654L
I0
tp131
aa(lp132
(L9654L
I0
tp133
aa(lp134
(L9654L
I0
tp135
aa(lp136
(L9654L
I0
tp137
aa(lp138
(L9654L
I0
tp139
aa(lp140
(L9654L
I0
tp141
aa(lp142
(L9654L
I0
tp143
aa(lp144
(L9654L
I0
tp145
aa(lp146
(L9654L
I0
tp147
aa(lp148
(L9654L
I0
tp149
aa(lp150
(L9654L
I0
tp151
aa(lp152
(L9654L
I0
tp153
aa(lp154
(L9654L
I0
tp155
aa(lp156
(L9654L
I0
tp157
aa(lp158
(L9654L
I0
tp159
aa(lp160
(L9654L
I0
tp161
aa(lp162
(L9654L
I0
tp163
aa(lp164
(L9654L
I0
tp165
aa(lp166
(L9654L
I0
tp167
aa(lp168
(L9654L
I0
tp169
aa(lp170
(L9654L
I0
tp171
aa(lp172
(L9654L
I0
tp173
aa(lp174
(L9654L
I0
tp175
aa(lp176
(L9654L
I0
tp177
aa(lp178
(L9654L
I0
tp179
aa(lp180
(L9654L
I0
tp181
aa(lp182
(L9654L
I0
tp183
aa(lp184
(L9654L
I0
tp185
aa(lp186
(L9654L
I0
tp187
aa(lp188
(L9654L
I0
tp189
aa(lp190
(L9654L
I0
tp191
aa(lp192
(L9654L
I0
tp193
aa(lp194
(L9654L
I0
tp195
aa(lp196
(L9654L
I0
tp197
aa(lp198
(L9654L
I0
tp199
aa(lp200
(L9654L
I0
tp201
aa(lp202
(L9654L
I0
tp203
aa(lp204
(L9654L
I0
tp205
aa(lp206
(L9654L
I0
tp207
aa(lp208
(L9654L
I0
tp209
aa(lp210
(L9654L
I0
tp211
aa(lp212
(L9654L
I0
tp213
aa(lp214
(L9654L
I0
tp215
aa(lp216
(L9654L
I0
tp217
aa(lp218
(L9654L
I0
tp219
aa(lp220
(L9654L
I0
tp221
aa(lp222
(L9654L
I0
tp223
aa(lp224
(L9654L
I0
tp225
aa(lp226
(L9654L
I0
tp227
aa(lp228
(L9654L
I0
tp229
aa(lp230
(L9654L
I0
tp231
aa(lp232
(L9654L
I0
tp233
aa(lp234
(L9654L
I0
tp235
aa(lp236
(L9654L
I0
tp237
aa(lp238
(L9654L
I0
tp239
aa(lp240
(L9654L
I0
tp241
aa(lp242
(L9654L
I0
tp243
aa(lp244
(L9654L
I0
tp245
aa(lp246
(L9654L
I0
tp247
aa(lp248
(L9654L
I0
tp249
aa(lp250
(L9654L
I0
tp251
aa(lp252
(L9654L
I0
tp253
aa(lp254
(L9654L
I0
tp255
aa(lp256
(L9654L
I0
tp257
aa(lp258
(L9654L
I0
tp259
aa(lp260
(L9654L
I0
tp261
aa(lp262
(L9654L
I0
tp263
aa(lp264
(L9654L
I0
tp265
aa(lp266
(L9654L
I0
tp267
aa(lp268
(L9654L
I0
tp269
aa(lp270
(L9654L
I0
tp271
aa(lp272
(L9654L
I0
tp273
aa(lp274
(L9654L
I0
tp275
aa(lp276
(L9654L
I0
tp277
aa(lp278
(L9654L
I0
tp279
aa(lp280
(L9654L
I0
tp281
aa(lp282
(L9654L
I0
tp283
aa(lp284
(L9654L
I0
tp285
aa(lp286
(L9654L
I0
tp287
aa(lp288
(L9654L
I0
tp289
aa(lp290
(L9654L
I0
tp291
aa(lp292
(L9654L
I0
tp293
aa(lp294
(L9654L
I0
tp295
aa(lp296
(L9654L
I0
tp297
aa(lp298
(L9654L
I0
tp299
aa(lp300
(L9654L
I0
tp301
aa(lp302
(L9654L
I0
tp303
aa(lp304
(L9654L
I0
tp305
aa(lp306
(L9654L
I0
tp307
aa(lp308
(L9654L
I0
tp309
aa(lp310
(L9654L
I0
tp311
aa(lp312
(L9654L
I0
tp313
aa(lp314
(L9654L
I0
tp315
aa(lp316
(L9654L
I0
tp317
aa(lp318
(L9654L
I0
tp319
aa(lp320
(L9654L
I0
tp321
aa(lp322
(L9654L
I0
tp323
aa(lp324
(L9654L
I0
tp325
aa(lp326
(L9654L
I0
tp327
aa(lp328
(L9654L
I0
tp329
aa(lp330
(L9654L
I0
tp331
aa(lp332
(L9654L
I0
tp333
aa(lp334
(L9654L
I0
tp335
aa(lp336
(L9654L
I0
tp337
aa(lp338
(L9654L
I0
tp339
aa(lp340
(L9654L
I0
tp341
aa(lp342
(L9654L
I0
tp343
aa(lp344
(L9654L
I0
tp345
aa(lp346
(L9654L
I0
tp347
aa(lp348
(L9654L
I0
tp349
aa(lp350
(L9654L
I0
tp351
aa(lp352
(L9654L
I0
tp353
aa(lp354
(L9654L
I0
tp355
aa(lp356
(L9654L
I0
tp357
aa(lp358
(L9654L
I0
tp359
aa(lp360
(L9654L
I0
tp361
aa(lp362
(L9654L
I0
tp363
aa(lp364
(L9654L
I0
tp365
aa(lp366
(L9654L
I0
tp367
aa(lp368
(L9654L
I0
tp369
aa(lp370
(L9654L
I0
tp371
aa(lp372
(L9654L
I0
tp373
aa(lp374
(L9654L
I0
tp375
aa(lp376
(L9654L
I0
tp377
aa(lp378
(L9654L
I0
tp379
aa(lp380
(L9654L
I0
tp381
aa(lp382
(L9654L
I0
tp383
aa(lp384
(L9654L
I0
tp385
aa(lp386
(L9654L
I0
tp387
aa(lp388
(L9654L
I0
tp389
aa(lp390
(L9654L
I0
tp391
aa(lp392
(L9654L
I0
tp393
aa(lp394
(L9654L
I0
tp395
aa(lp396
(L9654L
I0
tp397
aa(lp398
(L9654L
I0
tp399
aa(lp400
(L9654L
I0
tp401
aa(lp402
(L9654L
I0
tp403
aa(lp404
(L9654L
I0
tp405
aa(lp406
(L9654L
I0
tp407
aa(lp408
(L9654L
I0
tp409
aa(lp410
(L9654L
I0
tp411
aa(lp412
(L9654L
I0
tp413
aa(lp414
(L9654L
I0
tp415
aa(lp416
(L9654L
I0
tp417
aa(lp418
(L9654L
I0
tp419
aa(lp420
(L9654L
I0
tp421
aa(lp422
(L9654L
I0
tp423
aa(lp424
(L9654L
I0
tp425
aa(lp426
(L9654L
I0
tp427
aa(lp428
(L9654L
I0
tp429
aa(lp430
(L9654L
I0
tp431
aa(lp432
(L9654L
I0
tp433
aa(lp434
(L9654L
I0
tp435
aa(lp436
(L9654L
I0
tp437
aa(lp438
(L9654L
I0
tp439
aa(lp440
(L9654L
I0
tp441
aa(lp442
(L9654L
I0
tp443
aa(lp444
(L9654L
I0
tp445
aa(lp446
(L9654L
I0
tp447
aa(lp448
(L9654L
I0
tp449
aa(lp450
(L9654L
I0
tp451
aa(lp452
(L9654L
I0
tp453
aa(lp454
(L9654L
I0
tp455
aa(lp456
(L9654L
I0
tp457
aa(lp458
(L9654L
I0
tp459
aa(lp460
(L9654L
I0
tp461
aa(lp462
(L9654L
I0
tp463
aa(lp464
(L9654L
I0
tp465
aa(lp466
(L9654L
I0
tp467
aa(lp468
(L9654L
I0
tp469
aa(lp470
(L9654L
I0
tp471
aa(lp472
(L9654L
I0
tp473
aa(lp474
(L9654L
I0
tp475
aa(lp476
(L9654L
I0
tp477
aa(lp478
(L9654L
I0
tp479
aa(lp480
(L9654L
I0
tp481
aa(lp482
(L9654L
I0
tp483
aa(lp484
(L9654L
I0
tp485
aa(lp486
(L9654L
I0
tp487
aa(lp488
(L9654L
I0
tp489
aa(lp490
(L9654L
I0
tp491
aa(lp492
(L9654L
I0
tp493
aa(lp494
(L9654L
I0
tp495
aa(lp496
(L9654L
I0
tp497
aa(lp498
(L9654L
I0
tp499
aa(lp500
(L9654L
I0
tp501
aa(lp502
(L9654L
I0
tp503
aa(lp504
(L9654L
I0
tp505
aa(lp506
(L9654L
I0
tp507
aa(lp508
(L9654L
I0
tp509
aa(lp510
(L9654L
I0
tp511
aa(lp512
(L9654L
I0
tp513
aa(lp514
(L9654L
I0
tp515
aa(lp516
(L9654L
I0
tp517
aa(lp518
(L9654L
I0
tp519
aa(lp520
(L9654L
I0
tp521
aa(lp522
(L9654L
I0
tp523
aa(lp524
(L9654L
I0
tp525
aa(lp526
(L9654L
I0
tp527
aa(lp528
(L9654L
I0
tp529
aa(lp530
(L9654L
I0
tp531
aa(lp532
(L9654L
I0
tp533
aa(lp534
(L9654L
I0
tp535
aa(lp536
(L9654L
I0
tp537
aa(lp538
(L9654L
I0
tp539
aa(lp540
(L9654L
I0
tp541
aa(lp542
(L9654L
I0
tp543
aa(lp544
(L9654L
I0
tp545
aa(lp546
(L9654L
I0
tp547
aa(lp548
(L9654L
I0
tp549
aa(lp550
(L9654L
I0
tp551
aa(lp552
(L9654L
I0
tp553
aa(lp554
(L9654L
I0
tp555
aa(lp556
(L9654L
I0
tp557
aa(lp558
(L9654L
I0
tp559
aa(lp560
(L9654L
I0
tp561
aa(lp562
(L9654L
I0
tp563
aa(lp564
(L9654L
I0
tp565
aa(lp566
(L9654L
I0
tp567
aa(lp568
(L9654L
I0
tp569
aa(lp570
(L9654L
I0
tp571
aa(lp572
(L9654L
I0
tp573
aa(lp574
(L9654L
I0
tp575
aa(lp576
(L9654L
I0
tp577
aa(lp578
(L9654L
I0
tp579
aa(lp580
(L9654L
I0
tp581
aa(lp582
(L9654L
I0
tp583
aa(lp584
(L9654L
I0
tp585
aa(lp586
(L9654L
I0
tp587
aa(lp588
(L9654L
I0
tp589
aa(lp590
(L9654L
I0
tp591
aa(lp592
(L9654L
I0
tp593
aa(lp594
(L9654L
I0
tp595
aa(lp596
(L9654L
I0
tp597
aa(lp598
(L9654L
I0
tp599
aa(lp600
(L9654L
I0
tp601
aa(lp602
(L9654L
I0
tp603
aa(lp604
(L9654L
I0
tp605
aa(lp606
(L9654L
I0
tp607
aa(lp608
(L9654L
I0
tp609
aa(lp610
(L9654L
I0
tp611
aa(lp612
(L9654L
I0
tp613
aa(lp614
(L9654L
I0
tp615
aa(lp616
(L9654L
I0
tp617
aa(lp618
(L9654L
I0
tp619
aa(lp620
(L9654L
I0
tp621
aa(lp622
(L9654L
I0
tp623
aa(lp624
(L9654L
I0
tp625
aa(lp626
(L9654L
I0
tp627
aa(lp628
(L9654L
I0
tp629
aa(lp630
(L9654L
I0
tp631
aa(lp632
(L9654L
I0
tp633
aa(lp634
(L9654L
I0
tp635
aa(lp636
(L9654L
I0
tp637
aa(lp638
(L9654L
I0
tp639
aa(lp640
(L9654L
I0
tp641
aa(lp642
(L9654L
I0
tp643
aa(lp644
(L9654L
I0
tp645
aa(lp646
(L9654L
I0
tp647
aa(lp648
(L9654L
I0
tp649
aa(lp650
(L9654L
I0
tp651
aa(lp652
(L9654L
I0
tp653
aa(lp654
(L9654L
I0
tp655
aa(lp656
(L9654L
I0
tp657
aa(lp658
(L9654L
I0
tp659
aa(lp660
(L9654L
I0
tp661
aa(lp662
(L9654L
I0
tp663
aa(lp664
(L9654L
I0
tp665
aa(lp666
(L9654L
I0
tp667
aa(lp668
(L9654L
I0
tp669
aa(lp670
(L9654L
I0
tp671
aa(lp672
(L9654L
I0
tp673
aa(lp674
(L9654L
I0
tp675
aa(lp676
(L9654L
I0
tp677
aa(lp678
(L9654L
I0
tp679
aa(lp680
(L9654L
I0
tp681
aa(lp682
(L9654L
I0
tp683
aa(lp684
(L9654L
I0
tp685
aa(lp686
(L9654L
I0
tp687
aa(lp688
(L9654L
I0
tp689
aa(lp690
(L9654L
I0
tp691
aa(lp692
(L9654L
I0
tp693
aa(lp694
(L9654L
I0
tp695
aa(lp696
(L9654L
I0
tp697
aa(lp698
(L9654L
I0
tp699
aa(lp700
(L9654L
I0
tp701
aa(lp702
(L9654L
I0
tp703
aa(lp704
(L9654L
I0
tp705
aa(lp706
(L9654L
I0
tp707
aa(lp708
(L9654L
I0
tp709
aa(lp710
(L9654L
I0
tp711
aa(lp712
(L9654L
I0
tp713
aa(lp714
(L9654L
I0
tp715
aa(lp716
(L9654L
I0
tp717
aa(lp718
(L9654L
I0
tp719
aa(lp720
(L9654L
I0
tp721
aa(lp722
(L9654L
I0
tp723
aa(lp724
(L9654L
I0
tp725
aa(lp726
(L9654L
I0
tp727
aa(lp728
(L9654L
I0
tp729
aa(lp730
(L9654L
I0
tp731
aa(lp732
(L9654L
I0
tp733
aa(lp734
(L9654L
I0
tp735
aa(lp736
(L9654L
I0
tp737
aa(lp738
(L9654L
I0
tp739
aa(lp740
(L9654L
I0
tp741
aa(lp742
(L9654L
I0
tp743
aa(lp744
(L9654L
I0
tp745
aa(lp746
(L9654L
I0
tp747
aa(lp748
(L9654L
I0
tp749
aa(lp750
(L9654L
I0
tp751
aa(lp752
(L9654L
I0
tp753
aa(lp754
(L9654L
I0
tp755
aa(lp756
(L9654L
I0
tp757
aa(lp758
(L9654L
I0
tp759
aa(lp760
(L9654L
I0
tp761
aa(lp762
(L9654L
I0
tp763
aa(lp764
(L9654L
I0
tp765
aa(lp766
(L9654L
I0
tp767
aa(lp768
(L9654L
I0
tp769
aa(lp770
(L9654L
I0
tp771
aa(lp772
(L9654L
I0
tp773
aa(lp774
(L9654L
I0
tp775
aa(lp776
(L9654L
I0
tp777
aa(lp778
(L9654L
I0
tp779
aa(lp780
(L9654L
I0
tp781
aa(lp782
(L9654L
I0
tp783
aa(lp784
(L9654L
I0
tp785
aa(lp786
(L9654L
I0
tp787
aa(lp788
(L9654L
I0
tp789
aa(lp790
(L9654L
I0
tp791
aa(lp792
(L9654L
I0
tp793
aa(lp794
(L9654L
I0
tp795
aa(lp796
(L9654L
I0
tp797
aa(lp798
(L9654L
I0
tp799
aa(lp800
(L9654L
I0
tp801
aa(lp802
(L9654L
I0
tp803
aa(lp804
(L9654L
I0
tp805
aa(lp806
(L9654L
I0
tp807
aa(lp808
(L9654L
I0
tp809
aa(lp810
(L9654L
I0
tp811
aa(lp812
(L9654L
I0
tp813
aa(lp814
(L9654L
I0
tp815
aa(lp816
(L9654L
I0
tp817
aa(lp818
(L9654L
I0
tp819
aa(lp820
(L9654L
I0
tp821
aa(lp822
(L9654L
I0
tp823
aa(lp824
(L9654L
I0
tp825
aa(lp826
(L9654L
I0
tp827
aa(lp828
(L9654L
I0
tp829
aa(lp830
(L9654L
I0
tp831
aa(lp832
(L9654L
I0
tp833
aa(lp834
(L9654L
I0
tp835
aa(lp836
(L9654L
I0
tp837
aa(lp838
(L9654L
I0
tp839
aa(lp840
(L9654L
I0
tp841
aa(lp842
(L9654L
I0
tp843
aa(lp844
(L9654L
I0
tp845
aa(lp846
(L9654L
I0
tp847
aa(lp848
(L9654L
I0
tp849
aa(lp850
(L9654L
I0
tp851
aa(lp852
(L9654L
I0
tp853
aa(lp854
(L9654L
I0
tp855
aa(lp856
(L9654L
I0
tp857
aa(lp858
(L9654L
I0
tp859
aa(lp860
(L9654L
I0
tp861
aa(lp862
(L9654L
I0
tp863
aa(lp864
(L9654L
I0
tp865
aa(lp866
(L9654L
I0
tp867
aa(lp868
(L9654L
I0
tp869
aa(lp870
(L9654L
I0
tp871
aa(lp872
(L9654L
I0
tp873
aa(lp874
(L9654L
I0
tp875
aa(lp876
(L9654L
I0
tp877
aa(lp878
(L9654L
I0
tp879
aa(lp880
(L9654L
I0
tp881
aa(lp882
(L9654L
I0
tp883
aa(lp884
(L9654L
I0
tp885
aa(lp886
(L9654L
I0
tp887
aa(lp888
(L9654L
I0
tp889
aa(lp890
(L9654L
I0
tp891
aa(lp892
(L9654L
I0
tp893
aa(lp894
(L9654L
I0
tp895
aa(lp896
(L9654L
I0
tp897
aa(lp898
(L9654L
I0
tp899
aa(lp900
(L9654L
I0
tp901
aa(lp902
(L9654L
I0
tp903
aa(lp904
(L9654L
I0
tp905
aa(lp906
(L9654L
I0
tp907
aa(lp908
(L9654L
I0
tp909
aa(lp910
(L9654L
I0
tp911
aa(lp912
(L9654L
I0
tp913
aa(lp914
(L9654L
I0
tp915
aa(lp916
(L9654L
I0
tp917
aa(lp918
(L9654L
I0
tp919
aa(lp920
(L9654L
I0
tp921
aa(lp922
(L9654L
I0
tp923
aa(lp924
(L9654L
I0
tp925
aa(lp926
(L9654L
I0
tp927
aa(lp928
(L9654L
I0
tp929
aa(lp930
(L9654L
I0
tp931
aa(lp932
(L9654L
I0
tp933
aa(lp934
(L9654L
I0
tp935
aa(lp936
(L9654L
I0
tp937
aa(lp938
(L9654L
I0
tp939
aa(lp940
(L9654L
I0
tp941
aa(lp942
(L9654L
I0
tp943
aa(lp944
(L9654L
I0
tp945
aa(lp946
(L9654L
I0
tp947
aa(lp948
(L9654L
I0
tp949
aa(lp950
(L9654L
I0
tp951
aa(lp952
(L9654L
I0
tp953
aa(lp954
(L9654L
I0
tp955
aa(lp956
(L9654L
I0
tp957
aa(lp958
(L9654L
I0
tp959
aa(lp960
(L9654L
I0
tp961
aa(lp962
(L9654L
I0
tp963
aa(lp964
(L9654L
I0
tp965
aa(lp966
(L9654L
I0
tp967
aa(lp968
(L9654L
I0
tp969
aa(lp970
(L9654L
I0
tp971
aa(lp972
(L9654L
I0
tp973
aa(lp974
(L9654L
I0
tp975
aa(lp976
(L9654L
I0
tp977
aa(lp978
(L9654L
I0
tp979
aa(lp980
(L9654L
I0
tp981
aa(lp982
(L9654L
I0
tp983
aa(lp984
(L9654L
I0
tp985
aa(lp986
(L9654L
I0
tp987
aa(lp988
(L9654L
I0
tp989
aa(lp990
(L9654L
I0
tp991
aa(lp992
(L9654L
I0
tp993
aa(lp994
(L9654L
I0
tp995
aa(lp996
(L9654L
I0
tp997
aa(lp998
(L9654L
I0
tp999
aa(lp1000
(L9654L
I0
tp1001
aa(lp1002
(L9654L
I0
tp1003
aa(lp1004
(L9654L
I0
tp1005
aa(lp1006
(L9654L
I0
tp1007
aa(lp1008
(L9654L
I0
tp1009
aa(lp1010
(L9654L
I0
tp1011
aa(lp1012
(L9654L
I0
tp1013
aa(lp1014
(L9654L
I0
tp1015
aa(lp1016
(L9654L
I0
tp1017
aa(lp1018
(L9654L
I0
tp1019
aa(lp1020
(L9654L
I0
tp1021
aa(lp1022
(L9654L
I0
tp1023
aa(lp1024
(L9654L
I0
tp1025
aa(lp1026
(L9654L
I0
tp1027
aa(lp1028
(L9654L
I0
tp1029
aa(lp1030
(L9654L
I0
tp1031
aa(lp1032
(L9654L
I0
tp1033
aa(lp1034
(L9654L
I0
tp1035
aa(lp1036
(L9654L
I0
tp1037
aa(lp1038
(L9654L
I0
tp1039
aa(lp1040
(L9654L
I0
tp1041
aa(lp1042
(L9654L
I0
tp1043
aa(lp1044
(L9654L
I0
tp1045
aa(lp1046
(L9654L
I0
tp1047
aa(lp1048
(L9654L
I0
tp1049
aa(lp1050
(L9654L
I0
tp1051
aa(lp1052
(L9654L
I0
tp1053
aa(lp1054
(L9654L
I0
tp1055
aa(lp1056
(L9654L
I0
tp1057
aa(lp1058
(L9654L
I0
tp1059
aa(lp1060
(L9654L
I0
tp1061
aa(lp1062
(L9654L
I0
tp1063
aa(lp1064
(L9654L
I0
tp1065
aa(lp1066
(L9654L
I0
tp1067
aa(lp1068
(L9654L
I0
tp1069
aa(lp1070
(L9654L
I0
tp1071
aa(lp1072
(L9654L
I0
tp1073
aa(lp1074
(L9654L
I0
tp1075
aa(lp1076
(L9654L
I0
tp1077
aa(lp1078
(L9654L
I0
tp1079
aa(lp1080
(L9654L
I0
tp1081
aa(lp1082
(L9654L
I0
tp1083
aa(lp1084
(L9654L
I0
tp1085
aa(lp1086
(L9654L
I0
tp1087
aa(lp1088
(L9654L
I0
tp1089
aa(lp1090
(L9654L
I0
tp1091
aa(lp1092
(L9654L
I0
tp1093
aa(lp1094
(L9654L
I0
tp1095
aa(lp1096
(L9654L
I0
tp1097
aa(lp1098
(L9654L
I0
tp1099
aa(lp1100
(L9654L
I0
tp1101
aa(lp1102
(L9654L
I0
tp1103
aa(lp1104
(L9654L
I0
tp1105
aa(lp1106
(L9654L
I0
tp1107
aa(lp1108
(L9654L
I0
tp1109
aa(lp1110
(L9654L
I0
tp1111
aa(lp1112
(L9654L
I0
tp1113
aa(lp1114
(L9654L
I0
tp1115
aa(lp1116
(L9654L
I0
tp1117
aa(lp1118
(L9654L
I0
tp1119
aa(lp1120
(L9654L
I0
tp1121
aa(lp1122
(L9654L
I0
tp1123
aa(lp1124
(L9654L
I0
tp1125
aa(lp1126
(L9654L
I0
tp1127
aa(lp1128
(L9654L
I0
tp1129
aa(lp1130
(L9654L
I0
tp1131
aa(lp1132
(L9654L
I0
tp1133
aa(lp1134
(L9654L
I0
tp1135
aa(lp1136
(L9654L
I0
tp1137
aa(lp1138
(L9654L
I0
tp1139
aa(lp1140
(L9654L
I0
tp1141
aa(lp1142
(L9654L
I0
tp1143
aa(lp1144
(L9654L
I0
tp1145
aa(lp1146
(L9654L
I0
tp1147
aa(lp1148
(L9654L
I0
tp1149
aa(lp1150
(L9654L
I0
tp1151
aa(lp1152
(L9654L
I0
tp1153
aa(lp1154
(L9654L
I0
tp1155
aa(lp1156
(L9654L
I0
tp1157
aa(lp1158
(L9654L
I0
tp1159
aa(lp1160
(L9654L
I0
tp1161
aa(lp1162
(L9654L
I0
tp1163
aa(lp1164
(L9654L
I0
tp1165
aa(lp1166
(L9654L
I0
tp1167
aa(lp1168
(L9654L
I0
tp1169
aa(lp1170
(L9654L
I0
tp1171
aa(lp1172
(L9654L
I0
tp1173
aa(lp1174
(L9654L
I0
tp1175
aa(lp1176
(L9654L
I0
tp1177
aa(lp1178
(L9654L
I0
tp1179
aa(lp1180
(L9654L
I0
tp1181
aa(lp1182
(L9654L
I0
tp1183
aa(lp1184
(L9654L
I0
tp1185
aa(lp1186
(L9654L
I0
tp1187
aa(lp1188
(L9654L
I0
tp1189
aa(lp1190
(L9654L
I0
tp1191
aa(lp1192
(L9654L
I0
tp1193
aa(lp1194
(L9654L
I0
tp1195
aa(lp1196
(L9654L
I0
tp1197
aa(lp1198
(L9654L
I0
tp1199
aa(lp1200
(L9654L
I0
tp1201
aa(lp1202
(L9654L
I0
tp1203
aa(lp1204
(L9654L
I0
tp1205
aa(lp1206
(L9654L
I0
tp1207
aa(lp1208
(L9654L
I0
tp1209
aa(lp1210
(L9654L
I0
tp1211
aa(lp1212
(L9654L
I0
tp1213
aa(lp1214
(L9654L
I0
tp1215
aa(lp1216
(L9654L
I0
tp1217
aa(lp1218
(L9654L
I0
tp1219
aa(lp1220
(L9654L
I0
tp1221
aa(lp1222
(L9654L
I0
tp1223
aa(lp1224
(L9654L
I0
tp1225
aa(lp1226
(L9654L
I0
tp1227
aa(lp1228
(L9654L
I0
tp1229
aa(lp1230
(L9654L
I0
tp1231
aa(lp1232
(L9654L
I0
tp1233
aa(lp1234
(L9654L
I0
tp1235
aa(lp1236
(L9654L
I0
tp1237
aa(lp1238
(L9654L
I0
tp1239
aa(lp1240
(L9654L
I0
tp1241
aa(lp1242
(L9654L
I0
tp1243
aa(lp1244
(L9654L
I0
tp1245
aa(lp1246
(L9654L
I0
tp1247
aa(lp1248
(L9654L
I0
tp1249
aa(lp1250
(L9654L
I0
tp1251
aa(lp1252
(L9654L
I0
tp1253
aa(lp1254
(L9654L
I0
tp1255
aa(lp1256
(L9654L
I0
tp1257
aa(lp1258
(L9654L
I0
tp1259
aa(lp1260
(L9654L
I0
tp1261
aa(lp1262
(L9654L
I0
tp1263
aa(lp1264
(L9654L
I0
tp1265
aa(lp1266
(L9654L
I0
tp1267
aa(lp1268
(L9654L
I0
tp1269
aa(lp1270
(L9654L
I0
tp1271
aa(lp1272
(L9654L
I0
tp1273
aa(lp1274
(L9654L
I0
tp1275
aa(lp1276
(L9654L
I0
tp1277
aa(lp1278
(L9654L
I0
tp1279
aa(lp1280
(L9654L
I0
tp1281
aa(lp1282
(L9654L
I0
tp1283
aa(lp1284
(L9654L
I0
tp1285
aa(lp1286
(L9654L
I0
tp1287
aa(lp1288
(L9654L
I0
tp1289
aa(lp1290
(L9654L
I0
tp1291
aa(lp1292
(L9654L
I0
tp1293
aa(lp1294
(L9654L
I0
tp1295
aa(lp1296
(L9654L
I0
tp1297
aa(lp1298
(L9654L
I0
tp1299
aa(lp1300
(L9654L
I0
tp1301
aa(lp1302
(L9654L
I0
tp1303
aa(lp1304
(L9654L
I0
tp1305
aa(lp1306
(L9654L
I0
tp1307
aa(lp1308
(L9654L
I0
tp1309
aa(lp1310
(L9654L
I0
tp1311
aa(lp1312
(L9654L
I0
tp1313
aa(lp1314
(L9654L
I0
tp1315
aa(lp1316
(L9654L
I0
tp1317
aa(lp1318
(L9654L
I0
tp1319
aa(lp1320
(L9654L
I0
tp1321
aa(lp1322
(L9654L
I0
tp1323
aa(lp1324
(L9654L
I0
tp1325
aa(lp1326
(L9654L
I0
tp1327
aa(lp1328
(L9654L
I0
tp1329
aa(lp1330
(L9654L
I0
tp1331
aa(lp1332
(L9654L
I0
tp1333
aa(lp1334
(L9654L
I0
tp1335
aa(lp1336
(L9654L
I0
tp1337
aa(lp1338
(L9654L
I0
tp1339
aa(lp1340
(L9654L
I0
tp1341
aa(lp1342
(L9654L
I0
tp1343
aa(lp1344
(L9654L
I0
tp1345
aa(lp1346
(L9654L
I0
tp1347
aa(lp1348
(L9654L
I0
tp1349
aa(lp1350
(L9654L
I0
tp1351
aa(lp1352
(L9654L
I0
tp1353
aa(lp1354
(L9654L
I0
tp1355
aa(lp1356
(L9654L
I0
tp1357
aa(lp1358
(L9654L
I0
tp1359
aa(lp1360
(L9654L
I0
tp1361
aa(lp1362
(L9654L
I0
tp1363
aa(lp1364
(L9654L
I0
tp1365
aa(lp1366
(L9654L
I0
tp1367
aa(lp1368
(L9654L
I0
tp1369
aa(lp1370
(L9654L
I0
tp1371
aa(lp1372
(L9654L
I0
tp1373
aa(lp1374
(L9654L
I0
tp1375
aa(lp1376
(L9654L
I0
tp1377
aa(lp1378
(L9654L
I0
tp1379
aa(lp1380
(L9654L
I0
tp1381
aa(lp1382
(L9654L
I0
tp1383
aa(lp1384
(L9654L
I0
tp1385
aa(lp1386
(L9654L
I0
tp1387
aa(lp1388
(L9654L
I0
tp1389
aa(lp1390
(L9654L
I0
tp1391
aa(lp1392
(L9654L
I0
tp1393
aa(lp1394
(L9654L
I0
tp1395
aa(lp1396
(L9654L
I0
tp1397
aa(lp1398
(L9654L
I0
tp1399
aa(lp1400
(L9654L
I0
tp1401
aa(lp1402
(L9654L
I0
tp1403
aa(lp1404
(L9654L
I0
tp1405
aa(lp1406
(L9654L
I0
tp1407
aa(lp1408
(L9654L
I0
tp1409
aa(lp1410
(L9654L
I0
tp1411
aa(lp1412
(L9654L
I0
tp1413
aa(lp1414
(L9654L
I0
tp1415
aa(lp1416
(L9654L
I0
tp1417
aa(lp1418
(L9654L
I0
tp1419
aa(lp1420
(L9654L
I0
tp1421
aa(lp1422
(L9654L
I0
tp1423
aa(lp1424
(L9654L
I0
tp1425
aa(lp1426
(L9654L
I0
tp1427
aa(lp1428
(L9654L
I0
tp1429
aa(lp1430
(L9654L
I0
tp1431
aa(lp1432
(L9654L
I0
tp1433
aa(lp1434
(L9654L
I0
tp1435
aa(lp1436
(L9654L
I0
tp1437
aa(lp1438
(L9654L
I0
tp1439
aa(lp1440
(L9654L
I0
tp1441
aa(lp1442
(L9654L
I0
tp1443
aa(lp1444
(L9654L
I0
tp1445
aa(lp1446
(L9654L
I0
tp1447
aa(lp1448
(L9654L
I0
tp1449
aa(lp1450
(L9654L
I0
tp1451
aa(lp1452
(L9654L
I0
tp1453
aa(lp1454
(L9654L
I0
tp1455
aa(lp1456
(L9654L
I0
tp1457
aa(lp1458
(L9654L
I0
tp1459
aa(lp1460
(L9654L
I0
tp1461
aa(lp1462
(L9654L
I0
tp1463
aa(lp1464
(L9654L
I0
tp1465
aa(lp1466
(L9654L
I0
tp1467
aa(lp1468
(L9654L
I0
tp1469
aa(lp1470
(L9654L
I0
tp1471
aa(lp1472
(L9654L
I0
tp1473
aa(lp1474
(L9654L
I0
tp1475
aa(lp1476
(L9654L
I0
tp1477
aa(lp1478
(L9654L
I0
tp1479
aa(lp1480
(L9654L
I0
tp1481
aa(lp1482
(L9654L
I0
tp1483
aa(lp1484
(L9654L
I0
tp1485
aa(lp1486
(L9654L
I0
tp1487
aa(lp1488
(L9654L
I0
tp1489
aa(lp1490
(L9654L
I0
tp1491
aa(lp1492
(L9654L
I0
tp1493
aa(lp1494
(L9654L
I0
tp1495
aa(lp1496
(L9654L
I0
tp1497
aa(lp1498
(L9654L
I0
tp1499
aa(lp1500
(L9654L
I0
tp1501
aa(lp1502
(L9654L
I0
tp1503
aa(lp1504
(L9654L
I0
tp1505
aa(lp1506
(L9654L
I0
tp1507
aa(lp1508
(L9654L
I0
tp1509
aa(lp1510
(L9654L
I0
tp1511
aa(lp1512
(L9654L
I0
tp1513
aa(lp1514
(L9654L
I0
tp1515
aa(lp1516
(L9654L
I0
tp1517
aa(lp1518
(L9654L
I0
tp1519
aa(lp1520
(L9654L
I0
tp1521
aa(lp1522
(L9654L
I0
tp1523
aa(lp1524
(L9654L
I0
tp1525
aa(lp1526
(L9654L
I0
tp1527
aa(lp1528
(L9654L
I0
tp1529
aa(lp1530
(L9654L
I0
tp1531
aa(lp1532
(L9654L
I0
tp1533
aa(lp1534
(L9654L
I0
tp1535
aa(lp1536
(L9654L
I0
tp1537
aa(lp1538
(L9654L
I0
tp1539
aa(lp1540
(L9654L
I0
tp1541
aa(lp1542
(L9654L
I0
tp1543
aa(lp1544
(L9654L
I0
tp1545
aa(lp1546
(L9654L
I0
tp1547
aa(lp1548
(L9654L
I0
tp1549
aa(lp1550
(L9654L
I0
tp1551
aa(lp1552
(L9654L
I0
tp1553
aa(lp1554
(L9654L
I0
tp1555
aa(lp1556
(L9654L
I0
tp1557
aa(lp1558
(L9654L
I0
tp1559
aa(lp1560
(L9654L
I0
tp1561
aa(lp1562
(L9654L
I0
tp1563
aa(lp1564
(L9654L
I0
tp1565
aa(lp1566
(L9654L
I0
tp1567
aa(lp1568
(L9654L
I0
tp1569
aa(lp1570
(L9654L
I0
tp1571
aa(lp1572
(L9654L
I0
tp1573
aa(lp1574
(L9654L
I0
tp1575
aa(lp1576
(L9654L
I0
tp1577
aa(lp1578
(L9654L
I0
tp1579
aa(lp1580
(L9654L
I0
tp1581
aa(lp1582
(L9654L
I0
tp1583
aa(lp1584
(L9654L
I0
tp1585
aa(lp1586
(L9654L
I0
tp1587
aa(lp1588
(L9654L
I0
tp1589
aa(lp1590
(L9654L
I0
tp1591
aa(lp1592
(L9654L
I0
tp1593
aa(lp1594
(L9654L
I0
tp1595
aa(lp1596
(L9654L
I0
tp1597
aa(lp1598
(L9654L
I0
tp1599
aa(lp1600
(L9654L
I0
tp1601
aa(lp1602
(L9654L
I0
tp1603
aa(lp1604
(L9654L
I0
tp1605
aa(lp1606
(L9654L
I0
tp1607
aa(lp1608
(L9654L
I0
tp1609
aa(lp1610
(L9654L
I0
tp1611
aa(lp1612
(L9654L
I0
tp1613
aa(lp1614
(L9654L
I0
tp1615
aa(lp1616
(L9654L
I0
tp1617
aa(lp1618
(L9654L
I0
tp1619
aa(lp1620
(L9654L
I0
tp1621
aa(lp1622
(L9654L
I0
tp1623
aa(lp1624
(L9654L
I0
tp1625
aa(lp1626
(L9654L
I0
tp1627
aa(lp1628
(L9654L
I0
tp1629
aa(lp1630
(L9654L
I0
tp1631
aa(lp1632
(L9654L
I0
tp1633
aa(lp1634
(L9654L
I0
tp1635
aa(lp1636
(L9654L
I0
tp1637
aa(lp1638
(L9654L
I0
tp1639
aa(lp1640
(L9654L
I0
tp1641
aa(lp1642
(L9654L
I0
tp1643
aa(lp1644
(L9654L
I0
tp1645
aa(lp1646
(L9654L
I0
tp1647
aa(lp1648
(L9654L
I0
tp1649
aa(lp1650
(L9654L
I0
tp1651
aa(lp1652
(L9654L
I0
tp1653
aa(lp1654
(L9654L
I0
tp1655
aa(lp1656
(L9654L
I0
tp1657
aa(lp1658
(L9654L
I0
tp1659
aa(lp1660
(L9654L
I0
tp1661
aa(lp1662
(L9654L
I0
tp1663
aa(lp1664
(L9654L
I0
tp1665
aa(lp1666
(L9654L
I0
tp1667
aa(lp1668
(L9654L
I0
tp1669
aa(lp1670
(L9654L
I0
tp1671
aa(lp1672
(L9654L
I0
tp1673
aa(lp1674
(L9654L
I0
tp1675
aa(lp1676
(L9654L
I0
tp1677
aa(lp1678
(L9654L
I0
tp1679
aa(lp1680
(L9654L
I0
tp1681
aa(lp1682
(L9654L
I0
tp1683
aa(lp1684
(L9654L
I0
tp1685
aa(lp1686
(L9654L
I0
tp1687
aa(lp1688
(L9654L
I0
tp1689
aa(lp1690
(L9654L
I0
tp1691
aa(lp1692
(L9654L
I0
tp1693
aa(lp1694
(L9654L
I0
tp1695
aa(lp1696
(L9654L
I0
tp1697
aa(lp1698
(L9654L
I0
tp1699
aa(lp1700
(L9654L
I0
tp1701
aa(lp1702
(L9654L
I0
tp1703
aa(lp1704
(L9654L
I0
tp1705
aa(lp1706
(L9654L
I0
tp1707
aa(lp1708
(L9654L
I0
tp1709
aa(lp1710
(L9654L
I0
tp1711
aa(lp1712
(L9654L
I0
tp1713
aa(lp1714
(L9654L
I0
tp1715
aa(lp1716
(L9654L
I0
tp1717
aa(lp1718
(L9654L
I0
tp1719
aa(lp1720
(L9654L
I0
tp1721
aa(lp1722
(L9654L
I0
tp1723
aa(lp1724
(L9654L
I0
tp1725
aa(lp1726
(L9654L
I0
tp1727
aa(lp1728
(L9654L
I0
tp1729
aa(lp1730
(L9654L
I0
tp1731
aa(lp1732
(L9654L
I0
tp1733
aa(lp1734
(L9654L
I0
tp1735
aa(lp1736
(L9654L
I0
tp1737
aa(lp1738
(L9654L
I0
tp1739
aa(lp1740
(L9654L
I0
tp1741
aa(lp1742
(L9654L
I0
tp1743
aa(lp1744
(L9654L
I0
tp1745
aa(lp1746
(L9654L
I0
tp1747
aa(lp1748
(L9654L
I0
tp1749
aa(lp1750
(L9654L
I0
tp1751
aa(lp1752
(L9654L
I0
tp1753
aa(lp1754
(L9654L
I0
tp1755
aa(lp1756
(L9654L
I0
tp1757
aa(lp1758
(L9654L
I0
tp1759
aa(lp1760
(L9654L
I0
tp1761
aa(lp1762
(L9654L
I0
tp1763
aa(lp1764
(L9654L
I0
tp1765
aa(lp1766
(L9654L
I0
tp1767
aa(lp1768
(L9654L
I0
tp1769
aa(lp1770
(L9654L
I0
tp1771
aa(lp1772
(L9654L
I0
tp1773
aa(lp1774
(L9654L
I0
tp1775
aa(lp1776
(L9654L
I0
tp1777
aa(lp1778
(L9654L
I0
tp1779
aa(lp1780
(L9654L
I0
tp1781
aa(lp1782
(L9654L
I0
tp1783
aa(lp1784
(L9654L
I0
tp1785
aa(lp1786
(L9654L
I0
tp1787
aa(lp1788
(L9654L
I0
tp1789
aa(lp1790
(L9654L
I0
tp1791
aa(lp1792
(L9654L
I0
tp1793
aa(lp1794
(L9654L
I0
tp1795
aa(lp1796
(L9654L
I0
tp1797
aa(lp1798
(L9654L
I0
tp1799
aa(lp1800
(L9654L
I0
tp1801
aa(lp1802
(L9654L
I0
tp1803
aa(lp1804
(L9654L
I0
tp1805
aa(lp1806
(L9654L
I0
tp1807
aa(lp1808
(L9654L
I0
tp1809
aa(lp1810
(L9654L
I0
tp1811
aa(lp1812
(L9654L
I0
tp1813
aa(lp1814
(L9654L
I0
tp1815
aa(lp1816
(L9654L
I0
tp1817
aa(lp1818
(L9654L
I0
tp1819
aa(lp1820
(L9654L
I0
tp1821
aa(lp1822
(L9654L
I0
tp1823
aa(lp1824
(L9654L
I0
tp1825
aa(lp1826
(L9654L
I0
tp1827
aa(lp1828
(L9654L
I0
tp1829
aa(lp1830
(L9654L
I0
tp1831
aa(lp1832
(L9654L
I0
tp1833
aa(lp1834
(L9654L
I0
tp1835
aa(lp1836
(L9654L
I0
tp1837
aa(lp1838
(L9654L
I0
tp1839
aa(lp1840
(L9654L
I0
tp1841
aa(lp1842
(L9654L
I0
tp1843
aa(lp1844
(L9654L
I0
tp1845
aa(lp1846
(L9654L
I0
tp1847
aa(lp1848
(L9654L
I0
tp1849
aa(lp1850
(L9654L
I0
tp1851
aa(lp1852
(L9654L
I0
tp1853
aa(lp1854
(L9654L
I0
tp1855
aa(lp1856
(L9654L
I0
tp1857
aa(lp1858
(L9654L
I0
tp1859
aa(lp1860
(L9654L
I0
tp1861
aa(lp1862
(L9654L
I0
tp1863
aa(lp1864
(L9654L
I0
tp1865
aa(lp1866
(L9654L
I0
tp1867
aa(lp1868
(L9654L
I0
tp1869
aa(lp1870
(L9654L
I0
tp1871
aa(lp1872
(L9654L
I0
tp1873
aa(lp1874
(L9654L
I0
tp1875
aa(lp1876
(L9654L
I0
tp1877
aa(lp1878
(L9654L
I0
tp1879
aa(lp1880
(L9654L
I0
tp1881
aa(lp1882
(L9654L
I0
tp1883
aa(lp1884
(L9654L
I0
tp1885
aa(lp1886
(L9654L
I0
tp1887
aa(lp1888
(L9654L
I0
tp1889
aa(lp1890
(L9654L
I0
tp1891
aa(lp1892
(L9654L
I0
tp1893
aa(lp1894
(L9654L
I0
tp1895
aa(lp1896
(L9654L
I0
tp1897
aa(lp1898
(L9654L
I0
tp1899
aa(lp1900
(L9654L
I0
tp1901
aa(lp1902
(L9654L
I0
tp1903
aa(lp1904
(L9654L
I0
tp1905
aa(lp1906
(L9654L
I0
tp1907
aa(lp1908
(L9654L
I0
tp1909
aa(lp1910
(L9654L
I0
tp1911
aa(lp1912
(L9654L
I0
tp1913
aa(lp1914
(L9654L
I0
tp1915
aa(lp1916
(L9654L
I0
tp1917
aa(lp1918
(L9654L
I0
tp1919
aa(lp1920
(L9654L
I0
tp1921
aa(lp1922
(L9654L
I0
tp1923
aa(lp1924
(L9654L
I0
tp1925
aa(lp1926
(L9654L
I0
tp1927
aa(lp1928
(L9654L
I0
tp1929
aa(lp1930
(L9654L
I0
tp1931
aa(lp1932
(L9654L
I0
tp1933
aa(lp1934
(L9654L
I0
tp1935
aa(lp1936
(L9654L
I0
tp1937
aa(lp1938
(L9654L
I0
tp1939
aa(lp1940
(L9654L
I0
tp1941
aa(lp1942
(L9654L
I0
tp1943
aa(lp1944
(L9654L
I0
tp1945
aa(lp1946
(L9654L
I0
tp1947
aa(lp1948
(L9654L
I0
tp1949
aa(lp1950
(L9654L
I0
tp1951
aa(lp1952
(L9654L
I0
tp1953
aa(lp1954
(L9654L
I0
tp1955
aa(lp1956
(L9654L
I0
tp1957
aa(lp1958
(L9654L
I0
tp1959
aa(lp1960
(L9654L
I0
tp1961
aa(lp1962
(L9654L
I0
tp1963
aa(lp1964
(L9654L
I0
tp1965
aa(lp1966
(L9654L
I0
tp1967
aa(lp1968
(L9654L
I0
tp1969
aa(lp1970
(L9654L
I0
tp1971
aa(lp1972
(L9654L
I0
tp1973
aa(lp1974
(L9654L
I0
tp1975
aa(lp1976
(L9654L
I0
tp1977
aa(lp1978
(L9654L
I0
tp1979
aa(lp1980
(L9654L
I0
tp1981
aa(lp1982
(L9654L
I0
tp1983
aa(lp1984
(L9654L
I0
tp1985
aa(lp1986
(L9654L
I0
tp1987
aa(lp1988
(L9654L
I0
tp1989
aa(lp1990
(L9654L
I0
tp1991
aa(lp1992
(L9654L
I0
tp1993
aa(lp1994
(L9654L
I0
tp1995
aa(lp1996
(L9654L
I0
tp1997
aa(lp1998
(L9654L
I0
tp1999
aa(lp2000
(L9654L
I0
tp2001
aa(lp2002
(L9654L
I0
tp2003
aa(lp2004
(L9654L
I0
tp2005
aa(lp2006
(L9654L
I0
tp2007
aa(lp2008
(L9654L
I0
tp2009
aa(lp2010
(L9654L
I0
tp2011
aa(lp2012
(L9654L
I0
tp2013
aa(lp2014
(L9654L
I0
tp2015
aa(lp2016
(L9654L
I0
tp2017
aa(lp2018
(L9654L
I0
tp2019
aa(lp2020
(L9654L
I0
tp2021
aa(lp2022
(L9654L
I0
tp2023
aa(lp2024
(L9654L
I0
tp2025
aa(lp2026
(L9654L
I0
tp2027
aa(lp2028
(L9654L
I0
tp2029
aa(lp2030
(L9654L
I0
tp2031
aa(lp2032
(L9654L
I0
tp2033
aa(lp2034
(L9654L
I0
tp2035
aa(lp2036
(L9654L
I0
tp2037
aa(lp2038
(L9654L
I0
tp2039
aa(lp2040
(L9654L
I0
tp2041
aa(lp2042
(L9654L
I0
tp2043
aa(lp2044
(L9654L
I0
tp2045
aa(lp2046
(L9654L
I0
tp2047
aa(lp2048
(L9654L
I0
tp2049
aa(lp2050
(L9654L
I0
tp2051
aa(lp2052
(L9654L
I0
tp2053
aa(lp2054
(L9654L
I0
tp2055
aa(lp2056
(L9654L
I0
tp2057
aa(lp2058
(L9654L
I0
tp2059
aa(lp2060
(L9654L
I0
tp2061
aasbssb.